; Function Attrs: nofree norecurse nosync nounwind memory(readwrite, inaccessiblemem: none) uwtable
define void @N_VDiv_Serial(ptr noundef readonly captures(none) %0, ptr noundef readonly captures(none) %1, ptr noundef readonly captures(none) %2) #7 {
  %4 = load ptr, ptr %0, align 8, !tbaa !54
  %5 = load i64, ptr %4, align 8, !tbaa !55
  %6 = getelementptr inbounds nuw i8, ptr %4, i64 16
  %7 = load ptr, ptr %6, align 8, !tbaa !61
  %8 = load ptr, ptr %1, align 8, !tbaa !54
  %9 = getelementptr inbounds nuw i8, ptr %8, i64 16
  %10 = load ptr, ptr %9, align 8, !tbaa !61
  %11 = load ptr, ptr %2, align 8, !tbaa !54
  %12 = getelementptr inbounds nuw i8, ptr %11, i64 16
  %13 = load ptr, ptr %12, align 8, !tbaa !61
  %14 = icmp sgt i64 %5, 0
  br i1 %14, label %.lr.ph, label %._crit_edge

.lr.ph:                                           ; preds = %3, %.lr.ph
  %.012 = phi i64 [ %21, %.lr.ph ], [ 0, %3 ]
  %15 = getelementptr inbounds nuw double, ptr %7, i64 %.012
  %16 = load double, ptr %15, align 8, !tbaa !64
  %17 = getelementptr inbounds nuw double, ptr %10, i64 %.012
  %18 = load double, ptr %17, align 8, !tbaa !64
  %19 = fdiv double %16, %18
  %20 = getelementptr inbounds nuw double, ptr %13, i64 %.012
  store double %19, ptr %20, align 8, !tbaa !64
  %21 = add nuw nsw i64 %.012, 1
  %exitcond.not = icmp eq i64 %21, %5
  br i1 %exitcond.not, label %._crit_edge, label %.lr.ph

._crit_edge:                                      ; preds = %.lr.ph, %3
  ret void
}